; Function Attrs: nounwind uwtable
define ptr @l_Lean_Server_FileWorker_runLakeSetupFile(ptr noundef readonly captures(none) %0, ptr noundef %1, ptr noundef %2, ptr noundef %3, ptr noundef %4, ptr noundef %5) local_unnamed_addr #0 {
  tail call void @lean_inc_heartbeat() #5
  %7 = tail call noalias ptr @mi_malloc_small(i64 noundef 24) #5
  %8 = icmp eq ptr %7, null
  br i1 %8, label %9, label %lean_alloc_ctor.exit

9:                                                ; preds = %6
  tail call void @lean_internal_panic_out_of_memory() #6
  unreachable

lean_alloc_ctor.exit:                             ; preds = %6
  %10 = getelementptr inbounds nuw i8, ptr %7, i64 4
  store i32 1, ptr %7, align 4, !tbaa !8
  store i32 16908312, ptr %10, align 4
  %11 = getelementptr inbounds nuw i8, ptr %7, i64 8
  store ptr %2, ptr %11, align 8, !tbaa !4
  %12 = getelementptr inbounds nuw i8, ptr %7, i64 16
  store ptr inttoptr (i64 1 to ptr), ptr %12, align 8, !tbaa !4
  %13 = load ptr, ptr @l_Lean_Server_FileWorker_runLakeSetupFile___closed__1, align 8, !tbaa !4
  tail call void @lean_inc_heartbeat() #5
  %14 = tail call noalias ptr @mi_malloc_small(i64 noundef 24) #5
  %15 = icmp eq ptr %14, null
  br i1 %15, label %16, label %lean_alloc_ctor.exit42

16:                                               ; preds = %lean_alloc_ctor.exit
  tail call void @lean_internal_panic_out_of_memory() #6
  unreachable

lean_alloc_ctor.exit42:                           ; preds = %lean_alloc_ctor.exit
  %17 = getelementptr inbounds nuw i8, ptr %14, i64 4
  store i32 1, ptr %14, align 4, !tbaa !8
  store i32 16908312, ptr %17, align 4
  %18 = getelementptr inbounds nuw i8, ptr %14, i64 8
  store ptr %13, ptr %18, align 8, !tbaa !4
  %19 = getelementptr inbounds nuw i8, ptr %14, i64 16
  store ptr %7, ptr %19, align 8, !tbaa !4
  %20 = tail call ptr @lean_array_mk(ptr noundef nonnull %14) #5
  %21 = getelementptr i8, ptr %3, i64 8
  %.val = load i64, ptr %21, align 8, !tbaa !11
  %22 = tail call ptr @l_Array_mapMUnsafe_map___at_Lean_Server_FileWorker_runLakeSetupFile___spec__1(i64 noundef %.val, i64 noundef 0, ptr noundef %3)
  %23 = tail call ptr @l_Array_append___rarg(ptr noundef %20, ptr noundef %22) #5
  %24 = ptrtoint ptr %22 to i64
  %25 = and i64 %24, 1
  %.not = icmp eq i64 %25, 0
  br i1 %.not, label %26, label %lean_dec.exit38

26:                                               ; preds = %lean_alloc_ctor.exit42
  %27 = load i32, ptr %22, align 4, !tbaa !8
  %28 = icmp sgt i32 %27, 1
  br i1 %28, label %29, label %31, !prof !13

29:                                               ; preds = %26
  %30 = add nsw i32 %27, -1
  store i32 %30, ptr %22, align 4, !tbaa !8
  br label %lean_dec.exit38

31:                                               ; preds = %26
  %.not.i = icmp eq i32 %27, 0
  br i1 %.not.i, label %lean_dec.exit38, label %32

32:                                               ; preds = %31
  tail call void @lean_dec_ref_cold(ptr noundef nonnull %22) #5
  br label %lean_dec.exit38

lean_dec.exit38:                                  ; preds = %32, %31, %29, %lean_alloc_ctor.exit42
  %33 = getelementptr i8, ptr %0, i64 40
  %.val41 = load i8, ptr %33, align 1, !tbaa !17
  %34 = icmp eq i8 %.val41, 2
  br i1 %34, label %35, label %lean_dec.exit

35:                                               ; preds = %lean_dec.exit38
  %36 = load ptr, ptr @l_Lean_Server_FileWorker_runLakeSetupFile___closed__2, align 8, !tbaa !4
  %37 = tail call ptr @lean_array_push(ptr noundef %23, ptr noundef %36) #5
  %38 = load ptr, ptr @l_Lean_Server_FileWorker_runLakeSetupFile___closed__3, align 8, !tbaa !4
  %39 = tail call ptr @lean_array_push(ptr noundef %37, ptr noundef %38) #5
  br label %lean_dec.exit

lean_dec.exit:                                    ; preds = %lean_dec.exit38, %35
  %.sink = phi ptr [ %39, %35 ], [ %23, %lean_dec.exit38 ]
  %40 = tail call ptr @l_Lean_Server_FileWorker_runLakeSetupFile___lambda__1(ptr noundef nonnull inttoptr (i64 1 to ptr), ptr noundef %1, ptr noundef %4, ptr noundef %.sink, ptr nonnull poison, ptr noundef %5)
  ret ptr %40
}